target datalayout = "e-m:e-p270:32:32-p271:32:32-p272:64:64-i64:64-i128:128-f80:128-n8:16:32:64-S128"
target triple = "x86_64-pc-linux-gnu"

%struct.b2ArenaEntryArray = type { ptr, i32, i32 }
%struct.b2ArenaAllocator = type { ptr, i32, i32, i32, i32, %struct.b2ArenaEntryArray }
%struct.b2ArenaEntry = type { ptr, ptr, i32, i8 }

; Function Attrs: nounwind uwtable
define hidden void @b2ArenaEntryArray_Reserve(ptr noundef %0, i32 noundef %1) #0 {
  %3 = alloca ptr, align 8
  %4 = alloca i32, align 4
  store ptr %0, ptr %3, align 8, !tbaa !12
  store i32 %1, ptr %4, align 4, !tbaa !3
  %5 = load i32, ptr %4, align 4, !tbaa !3
  %6 = load ptr, ptr %3, align 8, !tbaa !12
  %7 = getelementptr inbounds nuw %struct.b2ArenaEntryArray, ptr %6, i32 0, i32 2
  %8 = load i32, ptr %7, align 4, !tbaa !11
  %9 = icmp sle i32 %5, %8
  br i1 %9, label %10, label %11

10:                                               ; preds = %2
  br label %31

11:                                               ; preds = %2
  %12 = load ptr, ptr %3, align 8, !tbaa !12
  %13 = getelementptr inbounds nuw %struct.b2ArenaEntryArray, ptr %12, i32 0, i32 0
  %14 = load ptr, ptr %13, align 8, !tbaa !7
  %15 = load ptr, ptr %3, align 8, !tbaa !12
  %16 = getelementptr inbounds nuw %struct.b2ArenaEntryArray, ptr %15, i32 0, i32 2
  %17 = load i32, ptr %16, align 4, !tbaa !11
  %18 = sext i32 %17 to i64
  %19 = mul i64 %18, 24
  %20 = trunc i64 %19 to i32
  %21 = load i32, ptr %4, align 4, !tbaa !3
  %22 = sext i32 %21 to i64
  %23 = mul i64 %22, 24
  %24 = trunc i64 %23 to i32
  %25 = call ptr @b2GrowAlloc(ptr noundef %14, i32 noundef %20, i32 noundef %24)
  %26 = load ptr, ptr %3, align 8, !tbaa !12
  %27 = getelementptr inbounds nuw %struct.b2ArenaEntryArray, ptr %26, i32 0, i32 0
  store ptr %25, ptr %27, align 8, !tbaa !7
  %28 = load i32, ptr %4, align 4, !tbaa !3
  %29 = load ptr, ptr %3, align 8, !tbaa !12
  %30 = getelementptr inbounds nuw %struct.b2ArenaEntryArray, ptr %29, i32 0, i32 2
  store i32 %28, ptr %30, align 4, !tbaa !11
  br label %31

31:                                               ; preds = %11, %10
  ret void
}

; Function Attrs: inlinehint nounwind uwtable
define internal void @b2ArenaEntryArray_Push(ptr noundef %0, ptr noundef byval(%struct.b2ArenaEntry) align 8 %1) #5 {
  %3 = alloca ptr, align 8
  %4 = alloca i32, align 4
  store ptr %0, ptr %3, align 8, !tbaa !12
  %5 = load ptr, ptr %3, align 8, !tbaa !12
  %6 = getelementptr inbounds nuw %struct.b2ArenaEntryArray, ptr %5, i32 0, i32 1
  %7 = load i32, ptr %6, align 8, !tbaa !13
  %8 = load ptr, ptr %3, align 8, !tbaa !12
  %9 = getelementptr inbounds nuw %struct.b2ArenaEntryArray, ptr %8, i32 0, i32 2
  %10 = load i32, ptr %9, align 4, !tbaa !11
  %11 = icmp eq i32 %7, %10
  br i1 %11, label %12, label %31

12:                                               ; preds = %2
  call void @llvm.lifetime.start.p0(i64 4, ptr %4) #6
  %13 = load ptr, ptr %3, align 8, !tbaa !12
  %14 = getelementptr inbounds nuw %struct.b2ArenaEntryArray, ptr %13, i32 0, i32 2
  %15 = load i32, ptr %14, align 4, !tbaa !11
  %16 = icmp slt i32 %15, 2
  br i1 %16, label %17, label %18

17:                                               ; preds = %12
  br label %27

18:                                               ; preds = %12
  %19 = load ptr, ptr %3, align 8, !tbaa !12
  %20 = getelementptr inbounds nuw %struct.b2ArenaEntryArray, ptr %19, i32 0, i32 2
  %21 = load i32, ptr %20, align 4, !tbaa !11
  %22 = load ptr, ptr %3, align 8, !tbaa !12
  %23 = getelementptr inbounds nuw %struct.b2ArenaEntryArray, ptr %22, i32 0, i32 2
  %24 = load i32, ptr %23, align 4, !tbaa !11
  %25 = ashr i32 %24, 1
  %26 = add nsw i32 %21, %25
  br label %27

27:                                               ; preds = %18, %17
  %28 = phi i32 [ 2, %17 ], [ %26, %18 ]
  store i32 %28, ptr %4, align 4, !tbaa !3
  %29 = load ptr, ptr %3, align 8, !tbaa !12
  %30 = load i32, ptr %4, align 4, !tbaa !3
  call void @b2ArenaEntryArray_Reserve(ptr noundef %29, i32 noundef %30)
  call void @llvm.lifetime.end.p0(i64 4, ptr %4) #6
  br label %31

31:                                               ; preds = %27, %2
  %32 = load ptr, ptr %3, align 8, !tbaa !12
  %33 = getelementptr inbounds nuw %struct.b2ArenaEntryArray, ptr %32, i32 0, i32 0
  %34 = load ptr, ptr %33, align 8, !tbaa !7
  %35 = load ptr, ptr %3, align 8, !tbaa !12
  %36 = getelementptr inbounds nuw %struct.b2ArenaEntryArray, ptr %35, i32 0, i32 1
  %37 = load i32, ptr %36, align 8, !tbaa !13
  %38 = sext i32 %37 to i64
  %39 = getelementptr inbounds %struct.b2ArenaEntry, ptr %34, i64 %38
  call void @llvm.memcpy.p0.p0.i64(ptr align 8 %39, ptr align 8 %1, i64 24, i1 false), !tbaa.struct !32
  %40 = load ptr, ptr %3, align 8, !tbaa !12
  %41 = getelementptr inbounds nuw %struct.b2ArenaEntryArray, ptr %40, i32 0, i32 1
  %42 = load i32, ptr %41, align 8, !tbaa !13
  %43 = add nsw i32 %42, 1
  store i32 %43, ptr %41, align 8, !tbaa !13
  ret void
}

; Function Attrs: nounwind uwtable
define hidden ptr @b2AllocateArenaItem(ptr noundef %0, i32 noundef %1, ptr noundef %2) #0 {
  %4 = alloca ptr, align 8
  %5 = alloca i32, align 4
  %6 = alloca ptr, align 8
  %7 = alloca i32, align 4
  %8 = alloca %struct.b2ArenaEntry, align 8
  store ptr %0, ptr %4, align 8, !tbaa !23
  store i32 %1, ptr %5, align 4, !tbaa !3
  store ptr %2, ptr %6, align 8, !tbaa !25
  call void @llvm.lifetime.start.p0(i64 4, ptr %7) #6
  %9 = load i32, ptr %5, align 4, !tbaa !3
  %10 = sub nsw i32 %9, 1
  %11 = or i32 %10, 31
  %12 = add nsw i32 %11, 1
  store i32 %12, ptr %7, align 4, !tbaa !3
  call void @llvm.lifetime.start.p0(i64 24, ptr %8) #6
  %13 = load i32, ptr %7, align 4, !tbaa !3
  %14 = getelementptr inbounds nuw %struct.b2ArenaEntry, ptr %8, i32 0, i32 2
  store i32 %13, ptr %14, align 8, !tbaa !26
  %15 = load ptr, ptr %6, align 8, !tbaa !25
  %16 = getelementptr inbounds nuw %struct.b2ArenaEntry, ptr %8, i32 0, i32 1
  store ptr %15, ptr %16, align 8, !tbaa !29
  %17 = load ptr, ptr %4, align 8, !tbaa !23
  %18 = getelementptr inbounds nuw %struct.b2ArenaAllocator, ptr %17, i32 0, i32 2
  %19 = load i32, ptr %18, align 4, !tbaa !20
  %20 = load i32, ptr %7, align 4, !tbaa !3
  %21 = add nsw i32 %19, %20
  %22 = load ptr, ptr %4, align 8, !tbaa !23
  %23 = getelementptr inbounds nuw %struct.b2ArenaAllocator, ptr %22, i32 0, i32 1
  %24 = load i32, ptr %23, align 8, !tbaa !14
  %25 = icmp sgt i32 %21, %24
  br i1 %25, label %26, label %31

26:                                               ; preds = %3
  %27 = load i32, ptr %7, align 4, !tbaa !3
  %28 = call ptr @b2Alloc(i32 noundef %27)
  %29 = getelementptr inbounds nuw %struct.b2ArenaEntry, ptr %8, i32 0, i32 0
  store ptr %28, ptr %29, align 8, !tbaa !30
  %30 = getelementptr inbounds nuw %struct.b2ArenaEntry, ptr %8, i32 0, i32 3
  store i8 1, ptr %30, align 4, !tbaa !31
  br label %47

31:                                               ; preds = %3
  %32 = load ptr, ptr %4, align 8, !tbaa !23
  %33 = getelementptr inbounds nuw %struct.b2ArenaAllocator, ptr %32, i32 0, i32 0
  %34 = load ptr, ptr %33, align 8, !tbaa !17
  %35 = load ptr, ptr %4, align 8, !tbaa !23
  %36 = getelementptr inbounds nuw %struct.b2ArenaAllocator, ptr %35, i32 0, i32 2
  %37 = load i32, ptr %36, align 4, !tbaa !20
  %38 = sext i32 %37 to i64
  %39 = getelementptr inbounds i8, ptr %34, i64 %38
  %40 = getelementptr inbounds nuw %struct.b2ArenaEntry, ptr %8, i32 0, i32 0
  store ptr %39, ptr %40, align 8, !tbaa !30
  %41 = getelementptr inbounds nuw %struct.b2ArenaEntry, ptr %8, i32 0, i32 3
  store i8 0, ptr %41, align 4, !tbaa !31
  %42 = load i32, ptr %7, align 4, !tbaa !3
  %43 = load ptr, ptr %4, align 8, !tbaa !23
  %44 = getelementptr inbounds nuw %struct.b2ArenaAllocator, ptr %43, i32 0, i32 2
  %45 = load i32, ptr %44, align 4, !tbaa !20
  %46 = add nsw i32 %45, %42
  store i32 %46, ptr %44, align 4, !tbaa !20
  br label %47

47:                                               ; preds = %31, %26
  %48 = load i32, ptr %7, align 4, !tbaa !3
  %49 = load ptr, ptr %4, align 8, !tbaa !23
  %50 = getelementptr inbounds nuw %struct.b2ArenaAllocator, ptr %49, i32 0, i32 3
  %51 = load i32, ptr %50, align 8, !tbaa !18
  %52 = add nsw i32 %51, %48
  store i32 %52, ptr %50, align 8, !tbaa !18
  %53 = load ptr, ptr %4, align 8, !tbaa !23
  %54 = getelementptr inbounds nuw %struct.b2ArenaAllocator, ptr %53, i32 0, i32 3
  %55 = load i32, ptr %54, align 8, !tbaa !18
  %56 = load ptr, ptr %4, align 8, !tbaa !23
  %57 = getelementptr inbounds nuw %struct.b2ArenaAllocator, ptr %56, i32 0, i32 4
  %58 = load i32, ptr %57, align 4, !tbaa !19
  %59 = icmp sgt i32 %55, %58
  br i1 %59, label %60, label %66

60:                                               ; preds = %47
  %61 = load ptr, ptr %4, align 8, !tbaa !23
  %62 = getelementptr inbounds nuw %struct.b2ArenaAllocator, ptr %61, i32 0, i32 3
  %63 = load i32, ptr %62, align 8, !tbaa !18
  %64 = load ptr, ptr %4, align 8, !tbaa !23
  %65 = getelementptr inbounds nuw %struct.b2ArenaAllocator, ptr %64, i32 0, i32 4
  store i32 %63, ptr %65, align 4, !tbaa !19
  br label %66

66:                                               ; preds = %60, %47
  %67 = load ptr, ptr %4, align 8, !tbaa !23
  %68 = getelementptr inbounds nuw %struct.b2ArenaAllocator, ptr %67, i32 0, i32 5
  call void @b2ArenaEntryArray_Push(ptr noundef %68, ptr noundef byval(%struct.b2ArenaEntry) align 8 %8)
  %69 = getelementptr inbounds nuw %struct.b2ArenaEntry, ptr %8, i32 0, i32 0
  %70 = load ptr, ptr %69, align 8, !tbaa !30
  call void @llvm.lifetime.end.p0(i64 24, ptr %8) #6
  call void @llvm.lifetime.end.p0(i64 4, ptr %7) #6
  ret ptr %70
}