; Function Attrs: nounwind uwtable
define hidden ptr @b2AllocateArenaItem(ptr noundef captures(none) %0, i32 noundef %1, ptr noundef %2) local_unnamed_addr #0 {
  %4 = add nsw i32 %1, -1
  %5 = or i32 %4, 31
  %6 = add nsw i32 %5, 1
  %7 = getelementptr inbounds nuw i8, ptr %0, i64 12
  %8 = load i32, ptr %7, align 4, !tbaa !17
  %9 = add nsw i32 %8, %6
  %10 = getelementptr inbounds nuw i8, ptr %0, i64 8
  %11 = load i32, ptr %10, align 8, !tbaa !11
  %12 = icmp sgt i32 %9, %11
  br i1 %12, label %13, label %15

13:                                               ; preds = %3
  %14 = tail call ptr @b2Alloc(i32 noundef %6) #4
  br label %19

15:                                               ; preds = %3
  %16 = load ptr, ptr %0, align 8, !tbaa !14
  %17 = sext i32 %8 to i64
  %18 = getelementptr inbounds i8, ptr %16, i64 %17
  store i32 %9, ptr %7, align 4, !tbaa !17
  br label %19

19:                                               ; preds = %15, %13
  %.sroa.8.0 = phi i8 [ 1, %13 ], [ 0, %15 ]
  %.sroa.0.0 = phi ptr [ %14, %13 ], [ %18, %15 ]
  %20 = getelementptr inbounds nuw i8, ptr %0, i64 16
  %21 = load i32, ptr %20, align 8, !tbaa !15
  %22 = add nsw i32 %21, %6
  store i32 %22, ptr %20, align 8, !tbaa !15
  %23 = getelementptr inbounds nuw i8, ptr %0, i64 20
  %24 = load i32, ptr %23, align 4, !tbaa !16
  %25 = icmp sgt i32 %22, %24
  br i1 %25, label %26, label %27

26:                                               ; preds = %19
  store i32 %22, ptr %23, align 4, !tbaa !16
  br label %27

27:                                               ; preds = %26, %19
  %28 = getelementptr inbounds nuw i8, ptr %0, i64 24
  %29 = getelementptr inbounds nuw i8, ptr %0, i64 32
  %30 = load i32, ptr %29, align 8, !tbaa !19
  %31 = getelementptr inbounds nuw i8, ptr %0, i64 36
  %32 = load i32, ptr %31, align 4, !tbaa !3
  %33 = icmp eq i32 %30, %32
  br i1 %33, label %34, label %.b2ArenaEntryArray_Reserve.exit_crit_edge.i

.b2ArenaEntryArray_Reserve.exit_crit_edge.i:      ; preds = %27
  %.pre.i = load ptr, ptr %28, align 8, !tbaa !10
  br label %b2ArenaEntryArray_Push.exit

34:                                               ; preds = %27
  %35 = icmp slt i32 %30, 2
  %36 = lshr i32 %30, 1
  %37 = add nuw nsw i32 %36, %30
  %38 = select i1 %35, i32 2, i32 %37
  %.not.i.i = icmp sgt i32 %38, %30
  %.pre9.i = load ptr, ptr %28, align 8, !tbaa !10
  br i1 %.not.i.i, label %39, label %b2ArenaEntryArray_Push.exit

39:                                               ; preds = %34
  %40 = mul i32 %30, 24
  %41 = mul i32 %38, 24
  %42 = tail call ptr @b2GrowAlloc(ptr noundef %.pre9.i, i32 noundef %40, i32 noundef %41) #4
  store ptr %42, ptr %28, align 8, !tbaa !10
  store i32 %38, ptr %31, align 4, !tbaa !3
  %.pre10.i = load i32, ptr %29, align 8, !tbaa !19
  br label %b2ArenaEntryArray_Push.exit

b2ArenaEntryArray_Push.exit:                      ; preds = %.b2ArenaEntryArray_Reserve.exit_crit_edge.i, %34, %39
  %43 = phi i32 [ %30, %.b2ArenaEntryArray_Reserve.exit_crit_edge.i ], [ %.pre10.i, %39 ], [ %30, %34 ]
  %44 = phi ptr [ %.pre.i, %.b2ArenaEntryArray_Reserve.exit_crit_edge.i ], [ %42, %39 ], [ %.pre9.i, %34 ]
  %45 = sext i32 %43 to i64
  %46 = getelementptr inbounds %struct.b2ArenaEntry, ptr %44, i64 %45
  store ptr %.sroa.0.0, ptr %46, align 8, !tbaa !20
  %.sroa.4.0..sroa_idx = getelementptr inbounds nuw i8, ptr %46, i64 8
  store ptr %2, ptr %.sroa.4.0..sroa_idx, align 8, !tbaa !20
  %.sroa.5.0..sroa_idx = getelementptr inbounds nuw i8, ptr %46, i64 16
  store i32 %6, ptr %.sroa.5.0..sroa_idx, align 8, !tbaa !21
  %.sroa.618.0..sroa_idx = getelementptr inbounds nuw i8, ptr %46, i64 20
  store i8 %.sroa.8.0, ptr %.sroa.618.0..sroa_idx, align 4, !tbaa !22
  %47 = load i32, ptr %29, align 8, !tbaa !19
  %48 = add nsw i32 %47, 1
  store i32 %48, ptr %29, align 8, !tbaa !19
  ret ptr %.sroa.0.0
}